; Function Attrs: mustprogress nounwind uwtable
define dso_local noundef ptr @_ZN4llvm9MDBuilder23createTBAAStructTagNodeEPNS_6MDNodeES2_mb(ptr nocapture noundef nonnull readonly align 8 dereferenceable(8) %0, ptr noundef %1, ptr noundef %2, i64 noundef %3, i1 noundef zeroext %4) local_unnamed_addr #0 align 2 {
  %6 = alloca [4 x ptr], align 8
  %7 = alloca [3 x ptr], align 8
  %8 = load ptr, ptr %0, align 8
  %9 = tail call noundef ptr @_ZN4llvm4Type10getInt64TyERNS_11LLVMContextE(ptr noundef nonnull align 8 dereferenceable(8) %8) #8
  %10 = tail call noundef ptr @_ZN4llvm11ConstantInt3getEPNS_11IntegerTypeEmb(ptr noundef %9, i64 noundef %3, i1 noundef zeroext false) #8
  %11 = load ptr, ptr %0, align 8
  br i1 %4, label %12, label %20

12:                                               ; preds = %5
  store ptr %1, ptr %6, align 8
  %13 = getelementptr inbounds i8, ptr %6, i64 8
  store ptr %2, ptr %13, align 8
  %14 = getelementptr inbounds i8, ptr %6, i64 16
  %15 = tail call noundef ptr @_ZN4llvm15ValueAsMetadata3getEPNS_5ValueE(ptr noundef %10) #8
  store ptr %15, ptr %14, align 8
  %16 = getelementptr inbounds i8, ptr %6, i64 24
  %17 = tail call noundef ptr @_ZN4llvm11ConstantInt3getEPNS_11IntegerTypeEmb(ptr noundef %9, i64 noundef 1, i1 noundef zeroext false) #8
  %18 = tail call noundef ptr @_ZN4llvm15ValueAsMetadata3getEPNS_5ValueE(ptr noundef %17) #8
  store ptr %18, ptr %16, align 8
  %19 = call noundef ptr @_ZN4llvm7MDTuple7getImplERNS_11LLVMContextENS_8ArrayRefIPNS_8MetadataEEENS4_11StorageTypeEb(ptr noundef nonnull align 8 dereferenceable(8) %11, ptr nonnull %6, i64 4, i32 noundef 0, i1 noundef zeroext true) #8
  br label %25

20:                                               ; preds = %5
  store ptr %1, ptr %7, align 8
  %21 = getelementptr inbounds i8, ptr %7, i64 8
  store ptr %2, ptr %21, align 8
  %22 = getelementptr inbounds i8, ptr %7, i64 16
  %23 = tail call noundef ptr @_ZN4llvm15ValueAsMetadata3getEPNS_5ValueE(ptr noundef %10) #8
  store ptr %23, ptr %22, align 8
  %24 = call noundef ptr @_ZN4llvm7MDTuple7getImplERNS_11LLVMContextENS_8ArrayRefIPNS_8MetadataEEENS4_11StorageTypeEb(ptr noundef nonnull align 8 dereferenceable(8) %11, ptr nonnull %7, i64 3, i32 noundef 0, i1 noundef zeroext true) #8
  br label %25

25:                                               ; preds = %20, %12
  %.0 = phi ptr [ %19, %12 ], [ %24, %20 ]
  ret ptr %.0
}